; Function Attrs: mustprogress nofree nounwind willreturn memory(read) uwtable
define noundef zeroext i1 @_ZN7testing8internal6String23EndsWithCaseInsensitiveERKNSt7__cxx1112basic_stringIcSt11char_traitsIcESaIcEEES9_(ptr noundef nonnull readonly align 8 captures(none) dereferenceable(32) %0, ptr noundef nonnull readonly align 8 captures(none) dereferenceable(32) %1) local_unnamed_addr #21 align 2 {
  %3 = getelementptr inbounds nuw i8, ptr %0, i64 8
  %4 = load i64, ptr %3, align 8, !tbaa !25
  %5 = getelementptr inbounds nuw i8, ptr %1, i64 8
  %6 = load i64, ptr %5, align 8, !tbaa !25
  %.not = icmp ult i64 %4, %6
  br i1 %.not, label %_ZN7testing8internal6String28CaseInsensitiveCStringEqualsEPKcS3_.exit, label %7

7:                                                ; preds = %2
  %8 = load ptr, ptr %0, align 8, !tbaa !22
  %9 = load ptr, ptr %1, align 8, !tbaa !22
  %10 = icmp eq ptr %8, null
  %11 = icmp eq ptr %9, null
  %brmerge.i = or i1 %10, %11
  %.mux.i = and i1 %10, %11
  br i1 %brmerge.i, label %_ZN7testing8internal6String28CaseInsensitiveCStringEqualsEPKcS3_.exit, label %12

12:                                               ; preds = %7
  %13 = getelementptr inbounds nuw i8, ptr %8, i64 %4
  %14 = sub i64 0, %6
  %15 = getelementptr inbounds i8, ptr %13, i64 %14
  %16 = tail call noundef i32 @strcasecmp(ptr noundef nonnull readonly %15, ptr noundef nonnull readonly %9) #63
  %17 = icmp eq i32 %16, 0
  br label %_ZN7testing8internal6String28CaseInsensitiveCStringEqualsEPKcS3_.exit

_ZN7testing8internal6String28CaseInsensitiveCStringEqualsEPKcS3_.exit: ; preds = %12, %7, %2
  %18 = phi i1 [ false, %2 ], [ %17, %12 ], [ %.mux.i, %7 ]
  ret i1 %18
}